; Function Attrs: nounwind uwtable
define noalias nonnull ptr @l_Lean_throwMaxRecDepthAt___at_Lean_Meta_Grind_Arith_Cutsat_EqCnstr_applySubsts___spec__1___boxed(ptr noundef %0, ptr noundef %1, ptr noundef %2, ptr noundef %3, ptr noundef %4, ptr noundef %5, ptr noundef %6, ptr noundef %7, ptr noundef %8, ptr noundef %9) local_unnamed_addr #1 {
  %11 = load ptr, ptr @l_Lean_throwMaxRecDepthAt___at_Lean_Meta_Grind_Arith_Cutsat_DiseqCnstr_applySubsts___spec__1___closed__6, align 8, !tbaa !9
  tail call void @lean_inc_heartbeat() #7
  %12 = tail call noalias ptr @mi_malloc_small(i64 noundef 24) #7
  %13 = icmp eq ptr %12, null
  br i1 %13, label %14, label %lean_alloc_ctor.exit.i

14:                                               ; preds = %10
  tail call void @lean_internal_panic_out_of_memory() #8
  unreachable

lean_alloc_ctor.exit.i:                           ; preds = %10
  %15 = getelementptr inbounds nuw i8, ptr %12, i64 4
  store i32 1, ptr %12, align 4, !tbaa !4
  store i32 131096, ptr %15, align 4
  %16 = getelementptr inbounds nuw i8, ptr %12, i64 8
  store ptr %0, ptr %16, align 8, !tbaa !9
  %17 = getelementptr inbounds nuw i8, ptr %12, i64 16
  store ptr %11, ptr %17, align 8, !tbaa !9
  tail call void @lean_inc_heartbeat() #7
  %18 = tail call noalias ptr @mi_malloc_small(i64 noundef 24) #7
  %19 = icmp eq ptr %18, null
  br i1 %19, label %20, label %l_Lean_throwMaxRecDepthAt___at_Lean_Meta_Grind_Arith_Cutsat_EqCnstr_applySubsts___spec__1.exit

20:                                               ; preds = %lean_alloc_ctor.exit.i
  tail call void @lean_internal_panic_out_of_memory() #8
  unreachable

l_Lean_throwMaxRecDepthAt___at_Lean_Meta_Grind_Arith_Cutsat_EqCnstr_applySubsts___spec__1.exit: ; preds = %lean_alloc_ctor.exit.i
  %21 = getelementptr inbounds nuw i8, ptr %18, i64 4
  store i32 1, ptr %18, align 4, !tbaa !4
  store i32 16908312, ptr %21, align 4
  %22 = getelementptr inbounds nuw i8, ptr %18, i64 8
  store ptr %12, ptr %22, align 8, !tbaa !9
  %23 = getelementptr inbounds nuw i8, ptr %18, i64 16
  store ptr %9, ptr %23, align 8, !tbaa !9
  %24 = ptrtoint ptr %8 to i64
  %25 = and i64 %24, 1
  %.not = icmp eq i64 %25, 0
  br i1 %.not, label %26, label %lean_dec.exit25

26:                                               ; preds = %l_Lean_throwMaxRecDepthAt___at_Lean_Meta_Grind_Arith_Cutsat_EqCnstr_applySubsts___spec__1.exit
  %27 = load i32, ptr %8, align 4, !tbaa !4
  %28 = icmp sgt i32 %27, 1
  br i1 %28, label %29, label %31, !prof !11

29:                                               ; preds = %26
  %30 = add nsw i32 %27, -1
  store i32 %30, ptr %8, align 4, !tbaa !4
  br label %lean_dec.exit25

31:                                               ; preds = %26
  %.not.i = icmp eq i32 %27, 0
  br i1 %.not.i, label %lean_dec.exit25, label %32

32:                                               ; preds = %31
  tail call void @lean_dec_ref_cold(ptr noundef nonnull %8) #7
  br label %lean_dec.exit25

lean_dec.exit25:                                  ; preds = %32, %31, %29, %l_Lean_throwMaxRecDepthAt___at_Lean_Meta_Grind_Arith_Cutsat_EqCnstr_applySubsts___spec__1.exit
  %33 = ptrtoint ptr %7 to i64
  %34 = and i64 %33, 1
  %.not40 = icmp eq i64 %34, 0
  br i1 %.not40, label %35, label %lean_dec.exit24

35:                                               ; preds = %lean_dec.exit25
  %36 = load i32, ptr %7, align 4, !tbaa !4
  %37 = icmp sgt i32 %36, 1
  br i1 %37, label %38, label %40, !prof !11

38:                                               ; preds = %35
  %39 = add nsw i32 %36, -1
  store i32 %39, ptr %7, align 4, !tbaa !4
  br label %lean_dec.exit24

40:                                               ; preds = %35
  %.not.i26 = icmp eq i32 %36, 0
  br i1 %.not.i26, label %lean_dec.exit24, label %41

41:                                               ; preds = %40
  tail call void @lean_dec_ref_cold(ptr noundef nonnull %7) #7
  br label %lean_dec.exit24

lean_dec.exit24:                                  ; preds = %41, %40, %38, %lean_dec.exit25
  %42 = ptrtoint ptr %6 to i64
  %43 = and i64 %42, 1
  %.not41 = icmp eq i64 %43, 0
  br i1 %.not41, label %44, label %lean_dec.exit23

44:                                               ; preds = %lean_dec.exit24
  %45 = load i32, ptr %6, align 4, !tbaa !4
  %46 = icmp sgt i32 %45, 1
  br i1 %46, label %47, label %49, !prof !11

47:                                               ; preds = %44
  %48 = add nsw i32 %45, -1
  store i32 %48, ptr %6, align 4, !tbaa !4
  br label %lean_dec.exit23

49:                                               ; preds = %44
  %.not.i28 = icmp eq i32 %45, 0
  br i1 %.not.i28, label %lean_dec.exit23, label %50

50:                                               ; preds = %49
  tail call void @lean_dec_ref_cold(ptr noundef nonnull %6) #7
  br label %lean_dec.exit23

lean_dec.exit23:                                  ; preds = %50, %49, %47, %lean_dec.exit24
  %51 = ptrtoint ptr %5 to i64
  %52 = and i64 %51, 1
  %.not42 = icmp eq i64 %52, 0
  br i1 %.not42, label %53, label %lean_dec.exit22

53:                                               ; preds = %lean_dec.exit23
  %54 = load i32, ptr %5, align 4, !tbaa !4
  %55 = icmp sgt i32 %54, 1
  br i1 %55, label %56, label %58, !prof !11

56:                                               ; preds = %53
  %57 = add nsw i32 %54, -1
  store i32 %57, ptr %5, align 4, !tbaa !4
  br label %lean_dec.exit22

58:                                               ; preds = %53
  %.not.i30 = icmp eq i32 %54, 0
  br i1 %.not.i30, label %lean_dec.exit22, label %59

59:                                               ; preds = %58
  tail call void @lean_dec_ref_cold(ptr noundef nonnull %5) #7
  br label %lean_dec.exit22

lean_dec.exit22:                                  ; preds = %59, %58, %56, %lean_dec.exit23
  %60 = ptrtoint ptr %4 to i64
  %61 = and i64 %60, 1
  %.not43 = icmp eq i64 %61, 0
  br i1 %.not43, label %62, label %lean_dec.exit21

62:                                               ; preds = %lean_dec.exit22
  %63 = load i32, ptr %4, align 4, !tbaa !4
  %64 = icmp sgt i32 %63, 1
  br i1 %64, label %65, label %67, !prof !11

65:                                               ; preds = %62
  %66 = add nsw i32 %63, -1
  store i32 %66, ptr %4, align 4, !tbaa !4
  br label %lean_dec.exit21

67:                                               ; preds = %62
  %.not.i32 = icmp eq i32 %63, 0
  br i1 %.not.i32, label %lean_dec.exit21, label %68

68:                                               ; preds = %67
  tail call void @lean_dec_ref_cold(ptr noundef nonnull %4) #7
  br label %lean_dec.exit21

lean_dec.exit21:                                  ; preds = %68, %67, %65, %lean_dec.exit22
  %69 = ptrtoint ptr %3 to i64
  %70 = and i64 %69, 1
  %.not44 = icmp eq i64 %70, 0
  br i1 %.not44, label %71, label %lean_dec.exit20

71:                                               ; preds = %lean_dec.exit21
  %72 = load i32, ptr %3, align 4, !tbaa !4
  %73 = icmp sgt i32 %72, 1
  br i1 %73, label %74, label %76, !prof !11

74:                                               ; preds = %71
  %75 = add nsw i32 %72, -1
  store i32 %75, ptr %3, align 4, !tbaa !4
  br label %lean_dec.exit20

76:                                               ; preds = %71
  %.not.i34 = icmp eq i32 %72, 0
  br i1 %.not.i34, label %lean_dec.exit20, label %77

77:                                               ; preds = %76
  tail call void @lean_dec_ref_cold(ptr noundef nonnull %3) #7
  br label %lean_dec.exit20

lean_dec.exit20:                                  ; preds = %77, %76, %74, %lean_dec.exit21
  %78 = ptrtoint ptr %2 to i64
  %79 = and i64 %78, 1
  %.not45 = icmp eq i64 %79, 0
  br i1 %.not45, label %80, label %lean_dec.exit19

80:                                               ; preds = %lean_dec.exit20
  %81 = load i32, ptr %2, align 4, !tbaa !4
  %82 = icmp sgt i32 %81, 1
  br i1 %82, label %83, label %85, !prof !11

83:                                               ; preds = %80
  %84 = add nsw i32 %81, -1
  store i32 %84, ptr %2, align 4, !tbaa !4
  br label %lean_dec.exit19

85:                                               ; preds = %80
  %.not.i36 = icmp eq i32 %81, 0
  br i1 %.not.i36, label %lean_dec.exit19, label %86

86:                                               ; preds = %85
  tail call void @lean_dec_ref_cold(ptr noundef nonnull %2) #7
  br label %lean_dec.exit19

lean_dec.exit19:                                  ; preds = %86, %85, %83, %lean_dec.exit20
  %87 = ptrtoint ptr %1 to i64
  %88 = and i64 %87, 1
  %.not46 = icmp eq i64 %88, 0
  br i1 %.not46, label %89, label %lean_dec.exit

89:                                               ; preds = %lean_dec.exit19
  %90 = load i32, ptr %1, align 4, !tbaa !4
  %91 = icmp sgt i32 %90, 1
  br i1 %91, label %92, label %94, !prof !11

92:                                               ; preds = %89
  %93 = add nsw i32 %90, -1
  store i32 %93, ptr %1, align 4, !tbaa !4
  br label %lean_dec.exit

94:                                               ; preds = %89
  %.not.i38 = icmp eq i32 %90, 0
  br i1 %.not.i38, label %lean_dec.exit, label %95

95:                                               ; preds = %94
  tail call void @lean_dec_ref_cold(ptr noundef nonnull %1) #7
  br label %lean_dec.exit

lean_dec.exit:                                    ; preds = %95, %94, %92, %lean_dec.exit19
  ret ptr %18
}